target datalayout = "e-m:e-p270:32:32-p271:32:32-p272:64:64-i64:64-i128:128-f80:128-n8:16:32:64-S128"
target triple = "x86_64-pc-linux-gnu"

%struct._address = type { i32, i32, ptr, ptr }
%struct._packet_info = type { ptr, ptr, i32, i32, %struct.nstime_t, %struct.nstime_t, %struct.nstime_t, i8, ptr, ptr, ptr, ptr, %struct._address, %struct._address, %struct._address, %struct._address, %struct._address, %struct._address, i32, ptr, i8, [3 x i8], %struct.anon, i32, i32, i32, i32, ptr, i8, ptr, ptr, i16, i16, i32, i32, i16, i32, i32, ptr, ptr, ptr, i8, i8, i16, i16, i16, i32, i16, i16, ptr, ptr, ptr, ptr, ptr, i32, i32 }
%struct.nstime_t = type { i64, i32 }
%struct.anon = type { i8, [3 x i8] }

@hf_fch_used_subchannel_group0 = internal global i32 0, align 4
@hf_fch_used_subchannel_group1 = internal global i32 0, align 4
@hf_fch_used_subchannel_group2 = internal global i32 0, align 4
@hf_fch_used_subchannel_group3 = internal global i32 0, align 4
@hf_fch_used_subchannel_group4 = internal global i32 0, align 4
@hf_fch_used_subchannel_group5 = internal global i32 0, align 4
@hf_fch_reserved_1 = internal global i32 0, align 4
@hf_fch_repetition_coding_indication = internal global i32 0, align 4
@hf_fch_coding_indication = internal global i32 0, align 4
@hf_fch_dlmap_length = internal global i32 0, align 4
@hf_fch_reserved_2 = internal global i32 0, align 4
@ett_wimax_fch_decoder = internal global i32 0, align 4
@proto_wimax_fch_decoder = internal global i32 0, align 4
@bs_address = external global %struct._address, align 8
@.str.37 = private unnamed_addr constant [4 x i8] c"FCH\00", align 1
@.str.38 = private unnamed_addr constant [26 x i8] c"DL Frame Prefix (24 bits)\00", align 1

; Function Attrs: inlinehint nounwind null_pointer_is_valid sspstrong uwtable
define internal void @clear_address(ptr noundef %0) #4 {
  %2 = alloca ptr, align 8
  store ptr %0, ptr %2, align 8
  %3 = load ptr, ptr %2, align 8
  %4 = getelementptr inbounds nuw %struct._address, ptr %3, i32 0, i32 0
  store i32 0, ptr %4, align 8
  %5 = load ptr, ptr %2, align 8
  %6 = getelementptr inbounds nuw %struct._address, ptr %5, i32 0, i32 1
  store i32 0, ptr %6, align 4
  %7 = load ptr, ptr %2, align 8
  %8 = getelementptr inbounds nuw %struct._address, ptr %7, i32 0, i32 2
  store ptr null, ptr %8, align 8
  %9 = load ptr, ptr %2, align 8
  %10 = getelementptr inbounds nuw %struct._address, ptr %9, i32 0, i32 3
  store ptr null, ptr %10, align 8
  ret void
}

; Function Attrs: inlinehint null_pointer_is_valid sspstrong uwtable
define internal void @alloc_address_wmem(ptr noundef %0, ptr noundef %1, i32 noundef %2, i32 noundef %3, ptr noundef %4) #3 {
  %6 = alloca ptr, align 8
  %7 = alloca ptr, align 8
  %8 = alloca i32, align 4
  %9 = alloca i32, align 4
  %10 = alloca ptr, align 8
  store ptr %0, ptr %6, align 8
  store ptr %1, ptr %7, align 8
  store i32 %2, ptr %8, align 4
  store i32 %3, ptr %9, align 4
  store ptr %4, ptr %10, align 8
  br label %11

11:                                               ; preds = %5
  br label %12

12:                                               ; preds = %11
  %13 = load ptr, ptr %7, align 8
  call void @clear_address(ptr noundef %13)
  %14 = load i32, ptr %8, align 4
  %15 = load ptr, ptr %7, align 8
  %16 = getelementptr inbounds nuw %struct._address, ptr %15, i32 0, i32 0
  store i32 %14, ptr %16, align 8
  %17 = load i32, ptr %9, align 4
  %18 = icmp eq i32 %17, 0
  br i1 %18, label %19, label %22

19:                                               ; preds = %12
  br label %20

20:                                               ; preds = %19
  br label %21

21:                                               ; preds = %20
  br label %39

22:                                               ; preds = %12
  br label %23

23:                                               ; preds = %22
  br label %24

24:                                               ; preds = %23
  br label %25

25:                                               ; preds = %24
  br label %26

26:                                               ; preds = %25
  %27 = load ptr, ptr %6, align 8
  %28 = load ptr, ptr %10, align 8
  %29 = load i32, ptr %9, align 4
  %30 = sext i32 %29 to i64
  %31 = call ptr @wmem_memdup(ptr noundef %27, ptr noundef %28, i64 noundef %30) #7
  %32 = load ptr, ptr %7, align 8
  %33 = getelementptr inbounds nuw %struct._address, ptr %32, i32 0, i32 3
  store ptr %31, ptr %33, align 8
  %34 = load ptr, ptr %7, align 8
  %35 = getelementptr inbounds nuw %struct._address, ptr %34, i32 0, i32 2
  store ptr %31, ptr %35, align 8
  %36 = load i32, ptr %9, align 4
  %37 = load ptr, ptr %7, align 8
  %38 = getelementptr inbounds nuw %struct._address, ptr %37, i32 0, i32 1
  store i32 %36, ptr %38, align 4
  br label %39

39:                                               ; preds = %26, %21
  ret void
}

; Function Attrs: inlinehint null_pointer_is_valid sspstrong uwtable
define internal void @copy_address_wmem(ptr noundef %0, ptr noundef %1, ptr noundef %2) #3 {
  %4 = alloca ptr, align 8
  %5 = alloca ptr, align 8
  %6 = alloca ptr, align 8
  store ptr %0, ptr %4, align 8
  store ptr %1, ptr %5, align 8
  store ptr %2, ptr %6, align 8
  %7 = load ptr, ptr %4, align 8
  %8 = load ptr, ptr %5, align 8
  %9 = load ptr, ptr %6, align 8
  %10 = getelementptr inbounds nuw %struct._address, ptr %9, i32 0, i32 0
  %11 = load i32, ptr %10, align 8
  %12 = load ptr, ptr %6, align 8
  %13 = getelementptr inbounds nuw %struct._address, ptr %12, i32 0, i32 1
  %14 = load i32, ptr %13, align 4
  %15 = load ptr, ptr %6, align 8
  %16 = getelementptr inbounds nuw %struct._address, ptr %15, i32 0, i32 2
  %17 = load ptr, ptr %16, align 8
  call void @alloc_address_wmem(ptr noundef %7, ptr noundef %8, i32 noundef %11, i32 noundef %14, ptr noundef %17)
  ret void
}

; Function Attrs: inlinehint null_pointer_is_valid sspstrong uwtable
define internal void @copy_address(ptr noundef %0, ptr noundef %1) #3 {
  %3 = alloca ptr, align 8
  %4 = alloca ptr, align 8
  store ptr %0, ptr %3, align 8
  store ptr %1, ptr %4, align 8
  %5 = load ptr, ptr %3, align 8
  %6 = load ptr, ptr %4, align 8
  call void @copy_address_wmem(ptr noundef null, ptr noundef %5, ptr noundef %6)
  ret void
}

; Function Attrs: null_pointer_is_valid sspstrong uwtable
define internal i32 @dissect_wimax_fch_decoder(ptr noundef %0, ptr noundef %1, ptr noundef %2, ptr noundef %3) #0 {
  %5 = alloca ptr, align 8
  %6 = alloca ptr, align 8
  %7 = alloca ptr, align 8
  %8 = alloca ptr, align 8
  %9 = alloca i32, align 4
  %10 = alloca ptr, align 8
  %11 = alloca ptr, align 8
  store ptr %0, ptr %5, align 8
  store ptr %1, ptr %6, align 8
  store ptr %2, ptr %7, align 8
  store ptr %3, ptr %8, align 8
  call void @llvm.lifetime.start.p0(i64 4, ptr %9) #6
  store i32 0, ptr %9, align 4
  call void @llvm.lifetime.start.p0(i64 8, ptr %10) #6
  store ptr null, ptr %10, align 8
  call void @llvm.lifetime.start.p0(i64 8, ptr %11) #6
  store ptr null, ptr %11, align 8
  %12 = load i32, ptr getelementptr inbounds nuw (%struct._address, ptr @bs_address, i32 0, i32 1), align 4
  %13 = icmp ne i32 %12, 0
  br i1 %13, label %17, label %14

14:                                               ; preds = %4
  %15 = load ptr, ptr %6, align 8
  %16 = getelementptr inbounds nuw %struct._packet_info, ptr %15, i32 0, i32 16
  call void @copy_address(ptr noundef @bs_address, ptr noundef %16)
  br label %17

17:                                               ; preds = %14, %4
  %18 = load ptr, ptr %6, align 8
  %19 = getelementptr inbounds nuw %struct._packet_info, ptr %18, i32 0, i32 1
  %20 = load ptr, ptr %19, align 8
  call void @col_append_sep_str(ptr noundef %20, i32 noundef 25, ptr noundef null, ptr noundef @.str.37)
  %21 = load ptr, ptr %7, align 8
  %22 = icmp ne ptr %21, null
  br i1 %22, label %23, label %87

23:                                               ; preds = %17
  %24 = load ptr, ptr %7, align 8
  %25 = load i32, ptr @proto_wimax_fch_decoder, align 4
  %26 = load ptr, ptr %5, align 8
  %27 = load i32, ptr %9, align 4
  %28 = call ptr (ptr, i32, ptr, i32, i32, ptr, ...) @proto_tree_add_protocol_format(ptr noundef %24, i32 noundef %25, ptr noundef %26, i32 noundef %27, i32 noundef 3, ptr noundef @.str.38)
  store ptr %28, ptr %10, align 8
  %29 = load ptr, ptr %10, align 8
  %30 = load i32, ptr @ett_wimax_fch_decoder, align 4
  %31 = call ptr @proto_item_add_subtree(ptr noundef %29, i32 noundef %30)
  store ptr %31, ptr %11, align 8
  %32 = load ptr, ptr %11, align 8
  %33 = load i32, ptr @hf_fch_used_subchannel_group0, align 4
  %34 = load ptr, ptr %5, align 8
  %35 = load i32, ptr %9, align 4
  %36 = call ptr @proto_tree_add_item(ptr noundef %32, i32 noundef %33, ptr noundef %34, i32 noundef %35, i32 noundef 3, i32 noundef 0)
  %37 = load ptr, ptr %11, align 8
  %38 = load i32, ptr @hf_fch_used_subchannel_group1, align 4
  %39 = load ptr, ptr %5, align 8
  %40 = load i32, ptr %9, align 4
  %41 = call ptr @proto_tree_add_item(ptr noundef %37, i32 noundef %38, ptr noundef %39, i32 noundef %40, i32 noundef 3, i32 noundef 0)
  %42 = load ptr, ptr %11, align 8
  %43 = load i32, ptr @hf_fch_used_subchannel_group2, align 4
  %44 = load ptr, ptr %5, align 8
  %45 = load i32, ptr %9, align 4
  %46 = call ptr @proto_tree_add_item(ptr noundef %42, i32 noundef %43, ptr noundef %44, i32 noundef %45, i32 noundef 3, i32 noundef 0)
  %47 = load ptr, ptr %11, align 8
  %48 = load i32, ptr @hf_fch_used_subchannel_group3, align 4
  %49 = load ptr, ptr %5, align 8
  %50 = load i32, ptr %9, align 4
  %51 = call ptr @proto_tree_add_item(ptr noundef %47, i32 noundef %48, ptr noundef %49, i32 noundef %50, i32 noundef 3, i32 noundef 0)
  %52 = load ptr, ptr %11, align 8
  %53 = load i32, ptr @hf_fch_used_subchannel_group4, align 4
  %54 = load ptr, ptr %5, align 8
  %55 = load i32, ptr %9, align 4
  %56 = call ptr @proto_tree_add_item(ptr noundef %52, i32 noundef %53, ptr noundef %54, i32 noundef %55, i32 noundef 3, i32 noundef 0)
  %57 = load ptr, ptr %11, align 8
  %58 = load i32, ptr @hf_fch_used_subchannel_group5, align 4
  %59 = load ptr, ptr %5, align 8
  %60 = load i32, ptr %9, align 4
  %61 = call ptr @proto_tree_add_item(ptr noundef %57, i32 noundef %58, ptr noundef %59, i32 noundef %60, i32 noundef 3, i32 noundef 0)
  %62 = load ptr, ptr %11, align 8
  %63 = load i32, ptr @hf_fch_reserved_1, align 4
  %64 = load ptr, ptr %5, align 8
  %65 = load i32, ptr %9, align 4
  %66 = call ptr @proto_tree_add_item(ptr noundef %62, i32 noundef %63, ptr noundef %64, i32 noundef %65, i32 noundef 3, i32 noundef 0)
  %67 = load ptr, ptr %11, align 8
  %68 = load i32, ptr @hf_fch_repetition_coding_indication, align 4
  %69 = load ptr, ptr %5, align 8
  %70 = load i32, ptr %9, align 4
  %71 = call ptr @proto_tree_add_item(ptr noundef %67, i32 noundef %68, ptr noundef %69, i32 noundef %70, i32 noundef 3, i32 noundef 0)
  %72 = load ptr, ptr %11, align 8
  %73 = load i32, ptr @hf_fch_coding_indication, align 4
  %74 = load ptr, ptr %5, align 8
  %75 = load i32, ptr %9, align 4
  %76 = call ptr @proto_tree_add_item(ptr noundef %72, i32 noundef %73, ptr noundef %74, i32 noundef %75, i32 noundef 3, i32 noundef 0)
  %77 = load ptr, ptr %11, align 8
  %78 = load i32, ptr @hf_fch_dlmap_length, align 4
  %79 = load ptr, ptr %5, align 8
  %80 = load i32, ptr %9, align 4
  %81 = call ptr @proto_tree_add_item(ptr noundef %77, i32 noundef %78, ptr noundef %79, i32 noundef %80, i32 noundef 3, i32 noundef 0)
  %82 = load ptr, ptr %11, align 8
  %83 = load i32, ptr @hf_fch_reserved_2, align 4
  %84 = load ptr, ptr %5, align 8
  %85 = load i32, ptr %9, align 4
  %86 = call ptr @proto_tree_add_item(ptr noundef %82, i32 noundef %83, ptr noundef %84, i32 noundef %85, i32 noundef 3, i32 noundef 0)
  br label %87

87:                                               ; preds = %23, %17
  %88 = load ptr, ptr %5, align 8
  %89 = call i32 @tvb_captured_length(ptr noundef %88)
  call void @llvm.lifetime.end.p0(i64 8, ptr %11) #6
  call void @llvm.lifetime.end.p0(i64 8, ptr %10) #6
  call void @llvm.lifetime.end.p0(i64 4, ptr %9) #6
  ret i32 %89
}