; Function Attrs: null_pointer_is_valid sspstrong uwtable
define internal i32 @dissect_wimax_fch_decoder(ptr noundef %0, ptr noundef readonly captures(none) %1, ptr noundef %2, ptr readnone captures(none) %3) #0 {
  %5 = load i32, ptr getelementptr inbounds nuw (i8, ptr @bs_address, i64 4), align 4
  %.not = icmp eq i32 %5, 0
  br i1 %.not, label %6, label %copy_address.exit

6:                                                ; preds = %4
  %7 = getelementptr inbounds nuw i8, ptr %1, i64 208
  %8 = load i32, ptr %7, align 8
  %9 = getelementptr inbounds nuw i8, ptr %1, i64 212
  %10 = load i32, ptr %9, align 4
  %11 = getelementptr inbounds nuw i8, ptr %1, i64 216
  %12 = load ptr, ptr %11, align 8
  tail call void @llvm.memset.p0.i64(ptr noundef nonnull align 8 dereferenceable(24) @bs_address, i8 0, i64 24, i1 false)
  store i32 %8, ptr @bs_address, align 8
  %13 = icmp eq i32 %10, 0
  br i1 %13, label %copy_address.exit, label %14

14:                                               ; preds = %6
  %15 = sext i32 %10 to i64
  %16 = tail call ptr @wmem_memdup(ptr noundef null, ptr noundef %12, i64 noundef %15) #4
  store ptr %16, ptr getelementptr inbounds nuw (i8, ptr @bs_address, i64 16), align 8
  store ptr %16, ptr getelementptr inbounds nuw (i8, ptr @bs_address, i64 8), align 8
  store i32 %10, ptr getelementptr inbounds nuw (i8, ptr @bs_address, i64 4), align 4
  br label %copy_address.exit

copy_address.exit:                                ; preds = %14, %6, %4
  %17 = getelementptr inbounds nuw i8, ptr %1, i64 8
  %18 = load ptr, ptr %17, align 8
  tail call void @col_append_sep_str(ptr noundef %18, i32 noundef 25, ptr noundef null, ptr noundef nonnull @.str.37)
  %.not40 = icmp eq ptr %2, null
  br i1 %.not40, label %46, label %19

19:                                               ; preds = %copy_address.exit
  %20 = load i32, ptr @proto_wimax_fch_decoder, align 4
  %21 = tail call ptr (ptr, i32, ptr, i32, i32, ptr, ...) @proto_tree_add_protocol_format(ptr noundef nonnull %2, i32 noundef %20, ptr noundef %0, i32 noundef 0, i32 noundef 3, ptr noundef nonnull @.str.38)
  %22 = load i32, ptr @ett_wimax_fch_decoder, align 4
  %23 = tail call ptr @proto_item_add_subtree(ptr noundef %21, i32 noundef %22)
  %24 = load i32, ptr @hf_fch_used_subchannel_group0, align 4
  %25 = tail call ptr @proto_tree_add_item(ptr noundef %23, i32 noundef %24, ptr noundef %0, i32 noundef 0, i32 noundef 3, i32 noundef 0)
  %26 = load i32, ptr @hf_fch_used_subchannel_group1, align 4
  %27 = tail call ptr @proto_tree_add_item(ptr noundef %23, i32 noundef %26, ptr noundef %0, i32 noundef 0, i32 noundef 3, i32 noundef 0)
  %28 = load i32, ptr @hf_fch_used_subchannel_group2, align 4
  %29 = tail call ptr @proto_tree_add_item(ptr noundef %23, i32 noundef %28, ptr noundef %0, i32 noundef 0, i32 noundef 3, i32 noundef 0)
  %30 = load i32, ptr @hf_fch_used_subchannel_group3, align 4
  %31 = tail call ptr @proto_tree_add_item(ptr noundef %23, i32 noundef %30, ptr noundef %0, i32 noundef 0, i32 noundef 3, i32 noundef 0)
  %32 = load i32, ptr @hf_fch_used_subchannel_group4, align 4
  %33 = tail call ptr @proto_tree_add_item(ptr noundef %23, i32 noundef %32, ptr noundef %0, i32 noundef 0, i32 noundef 3, i32 noundef 0)
  %34 = load i32, ptr @hf_fch_used_subchannel_group5, align 4
  %35 = tail call ptr @proto_tree_add_item(ptr noundef %23, i32 noundef %34, ptr noundef %0, i32 noundef 0, i32 noundef 3, i32 noundef 0)
  %36 = load i32, ptr @hf_fch_reserved_1, align 4
  %37 = tail call ptr @proto_tree_add_item(ptr noundef %23, i32 noundef %36, ptr noundef %0, i32 noundef 0, i32 noundef 3, i32 noundef 0)
  %38 = load i32, ptr @hf_fch_repetition_coding_indication, align 4
  %39 = tail call ptr @proto_tree_add_item(ptr noundef %23, i32 noundef %38, ptr noundef %0, i32 noundef 0, i32 noundef 3, i32 noundef 0)
  %40 = load i32, ptr @hf_fch_coding_indication, align 4
  %41 = tail call ptr @proto_tree_add_item(ptr noundef %23, i32 noundef %40, ptr noundef %0, i32 noundef 0, i32 noundef 3, i32 noundef 0)
  %42 = load i32, ptr @hf_fch_dlmap_length, align 4
  %43 = tail call ptr @proto_tree_add_item(ptr noundef %23, i32 noundef %42, ptr noundef %0, i32 noundef 0, i32 noundef 3, i32 noundef 0)
  %44 = load i32, ptr @hf_fch_reserved_2, align 4
  %45 = tail call ptr @proto_tree_add_item(ptr noundef %23, i32 noundef %44, ptr noundef %0, i32 noundef 0, i32 noundef 3, i32 noundef 0)
  br label %46

46:                                               ; preds = %19, %copy_address.exit
  %47 = tail call i32 @tvb_captured_length(ptr noundef %0)
  ret i32 %47
}